#include <math.h>
#include <stdio.h>
#include <stdlib.h>
#include <string.h>

int main()
{
	int w, i, s, t, n;
	scanf("%d", &w);
	for(i=0;i<12;i++){
		if(i==0){
			s=13;
		}
		else if(i==1||i==3||i==5||i==7||i==8||i==10){
			s+=31;
		}
		else if(i==2){
			s+=28;
		}
		else if(i==4||i==6||i==9||i==11){
			s+=30;
		}
		t=s-6+w;
		if(t%7==0){
			n=i+1;
			printf("%d\n", n);
		}
	}
	return 0;
}
		