; ModuleID = '50/400.c'
source_filename = "50/400.c"
target datalayout = "e-m:e-p270:32:32-p271:32:32-p272:64:64-i64:64-f80:128-n8:16:32:64-S128"
target triple = "x86_64-pc-linux-gnu"

@.str = private unnamed_addr constant [3 x i8] c"%d\00", align 1
@.str.1 = private unnamed_addr constant [4 x i8] c"%d\0A\00", align 1

; Function Attrs: noinline nounwind uwtable
define dso_local i32 @main() #0 {
  %1 = alloca i32, align 4
  %2 = alloca i32, align 4
  %3 = alloca i32, align 4
  %4 = alloca i32, align 4
  %5 = alloca i32, align 4
  %6 = alloca i32, align 4
  store i32 0, i32* %1, align 4
  %7 = call i32 (i8*, ...) @__isoc99_scanf(i8* getelementptr inbounds ([3 x i8], [3 x i8]* @.str, i64 0, i64 0), i32* %2)
  store i32 0, i32* %3, align 4
  br label %8

8:                                                ; preds = %74, %0
  %9 = load i32, i32* %3, align 4
  %10 = icmp slt i32 %9, 12
  br i1 %10, label %11, label %77

11:                                               ; preds = %8
  %12 = load i32, i32* %3, align 4
  %13 = icmp eq i32 %12, 0
  br i1 %13, label %14, label %15

14:                                               ; preds = %11
  store i32 13, i32* %4, align 4
  br label %60

15:                                               ; preds = %11
  %16 = load i32, i32* %3, align 4
  %17 = icmp eq i32 %16, 1
  br i1 %17, label %33, label %18

18:                                               ; preds = %15
  %19 = load i32, i32* %3, align 4
  %20 = icmp eq i32 %19, 3
  br i1 %20, label %33, label %21

21:                                               ; preds = %18
  %22 = load i32, i32* %3, align 4
  %23 = icmp eq i32 %22, 5
  br i1 %23, label %33, label %24

24:                                               ; preds = %21
  %25 = load i32, i32* %3, align 4
  %26 = icmp eq i32 %25, 7
  br i1 %26, label %33, label %27

27:                                               ; preds = %24
  %28 = load i32, i32* %3, align 4
  %29 = icmp eq i32 %28, 8
  br i1 %29, label %33, label %30

30:                                               ; preds = %27
  %31 = load i32, i32* %3, align 4
  %32 = icmp eq i32 %31, 10
  br i1 %32, label %33, label %36

33:                                               ; preds = %30, %27, %24, %21, %18, %15
  %34 = load i32, i32* %4, align 4
  %35 = add nsw i32 %34, 31
  store i32 %35, i32* %4, align 4
  br label %59

36:                                               ; preds = %30
  %37 = load i32, i32* %3, align 4
  %38 = icmp eq i32 %37, 2
  br i1 %38, label %39, label %42

39:                                               ; preds = %36
  %40 = load i32, i32* %4, align 4
  %41 = add nsw i32 %40, 28
  store i32 %41, i32* %4, align 4
  br label %58

42:                                               ; preds = %36
  %43 = load i32, i32* %3, align 4
  %44 = icmp eq i32 %43, 4
  br i1 %44, label %54, label %45

45:                                               ; preds = %42
  %46 = load i32, i32* %3, align 4
  %47 = icmp eq i32 %46, 6
  br i1 %47, label %54, label %48

48:                                               ; preds = %45
  %49 = load i32, i32* %3, align 4
  %50 = icmp eq i32 %49, 9
  br i1 %50, label %54, label %51

51:                                               ; preds = %48
  %52 = load i32, i32* %3, align 4
  %53 = icmp eq i32 %52, 11
  br i1 %53, label %54, label %57

54:                                               ; preds = %51, %48, %45, %42
  %55 = load i32, i32* %4, align 4
  %56 = add nsw i32 %55, 30
  store i32 %56, i32* %4, align 4
  br label %57

57:                                               ; preds = %54, %51
  br label %58

58:                                               ; preds = %57, %39
  br label %59

59:                                               ; preds = %58, %33
  br label %60

60:                                               ; preds = %59, %14
  %61 = load i32, i32* %4, align 4
  %62 = sub nsw i32 %61, 6
  %63 = load i32, i32* %2, align 4
  %64 = add nsw i32 %62, %63
  store i32 %64, i32* %5, align 4
  %65 = load i32, i32* %5, align 4
  %66 = srem i32 %65, 7
  %67 = icmp eq i32 %66, 0
  br i1 %67, label %68, label %73

68:                                               ; preds = %60
  %69 = load i32, i32* %3, align 4
  %70 = add nsw i32 %69, 1
  store i32 %70, i32* %6, align 4
  %71 = load i32, i32* %6, align 4
  %72 = call i32 (i8*, ...) @printf(i8* getelementptr inbounds ([4 x i8], [4 x i8]* @.str.1, i64 0, i64 0), i32 %71)
  br label %73

73:                                               ; preds = %68, %60
  br label %74

74:                                               ; preds = %73
  %75 = load i32, i32* %3, align 4
  %76 = add nsw i32 %75, 1
  store i32 %76, i32* %3, align 4
  br label %8

77:                                               ; preds = %8
  ret i32 0
}

declare dso_local i32 @__isoc99_scanf(i8*, ...) #1

declare dso_local i32 @printf(i8*, ...) #1


!llvm.module.flags = !{!0}
!llvm.ident = !{!1}

!0 = !{i32 1, !"wchar_size", i32 4}
!1 = !{!"clang version 10.0.0-4ubuntu1 "}
